target datalayout = "e-m:e-p270:32:32-p271:32:32-p272:64:64-i64:64-i128:128-f80:128-n8:16:32:64-S128"
target triple = "x86_64-pc-linux-gnu"

%class.dtPathCorridor = type { [3 x float], [3 x float], ptr, i32, i32 }

@.str.1 = private unnamed_addr constant [153 x i8] c"generated/home/dtcxzyw/WorkSpace/Projects/compilers/llvm-opt-benchmark/bench/recastnavigation/recastnavigation/DetourCrowd/Source/DetourPathCorridor.cpp\00", align 1
@.str.3 = private unnamed_addr constant [7 x i8] c"m_path\00", align 1

; Function Attrs: mustprogress nounwind uwtable
define linkonce_odr void @_Z7dtVcopyPfPKf(ptr noundef %0, ptr noundef %1) #1 comdat {
  %3 = alloca ptr, align 8
  %4 = alloca ptr, align 8
  store ptr %0, ptr %3, align 8
  store ptr %1, ptr %4, align 8
  %5 = load ptr, ptr %4, align 8
  %6 = getelementptr inbounds float, ptr %5, i64 0
  %7 = load float, ptr %6, align 4
  %8 = load ptr, ptr %3, align 8
  %9 = getelementptr inbounds float, ptr %8, i64 0
  store float %7, ptr %9, align 4
  %10 = load ptr, ptr %4, align 8
  %11 = getelementptr inbounds float, ptr %10, i64 1
  %12 = load float, ptr %11, align 4
  %13 = load ptr, ptr %3, align 8
  %14 = getelementptr inbounds float, ptr %13, i64 1
  store float %12, ptr %14, align 4
  %15 = load ptr, ptr %4, align 8
  %16 = getelementptr inbounds float, ptr %15, i64 2
  %17 = load float, ptr %16, align 4
  %18 = load ptr, ptr %3, align 8
  %19 = getelementptr inbounds float, ptr %18, i64 2
  store float %17, ptr %19, align 4
  ret void
}

; Function Attrs: mustprogress uwtable
define void @_ZN14dtPathCorridor5resetEjPKf(ptr noundef nonnull align 8 dereferenceable(40) %0, i32 noundef %1, ptr noundef %2) #0 align 2 {
  %4 = alloca ptr, align 8
  %5 = alloca i32, align 4
  %6 = alloca ptr, align 8
  %7 = alloca ptr, align 8
  store ptr %0, ptr %4, align 8
  store i32 %1, ptr %5, align 4
  store ptr %2, ptr %6, align 8
  %8 = load ptr, ptr %4, align 8
  %9 = call noundef ptr @_Z21dtAssertFailGetCustomv()
  store ptr %9, ptr %7, align 8
  %10 = load ptr, ptr %7, align 8
  %11 = icmp eq ptr %10, null
  br i1 %11, label %12, label %13

12:                                               ; preds = %3
  br label %20

13:                                               ; preds = %3
  %14 = getelementptr inbounds %class.dtPathCorridor, ptr %8, i32 0, i32 2
  %15 = load ptr, ptr %14, align 8
  %16 = icmp ne ptr %15, null
  br i1 %16, label %19, label %17

17:                                               ; preds = %13
  %18 = load ptr, ptr %7, align 8
  call void %18(ptr noundef @.str.3, ptr noundef @.str.1, i32 noundef 232)
  br label %19

19:                                               ; preds = %17, %13
  br label %20

20:                                               ; preds = %19, %12
  %21 = getelementptr inbounds %class.dtPathCorridor, ptr %8, i32 0, i32 0
  %22 = getelementptr inbounds [3 x float], ptr %21, i64 0, i64 0
  %23 = load ptr, ptr %6, align 8
  call void @_Z7dtVcopyPfPKf(ptr noundef %22, ptr noundef %23)
  %24 = getelementptr inbounds %class.dtPathCorridor, ptr %8, i32 0, i32 1
  %25 = getelementptr inbounds [3 x float], ptr %24, i64 0, i64 0
  %26 = load ptr, ptr %6, align 8
  call void @_Z7dtVcopyPfPKf(ptr noundef %25, ptr noundef %26)
  %27 = load i32, ptr %5, align 4
  %28 = getelementptr inbounds %class.dtPathCorridor, ptr %8, i32 0, i32 2
  %29 = load ptr, ptr %28, align 8
  %30 = getelementptr inbounds i32, ptr %29, i64 0
  store i32 %27, ptr %30, align 4
  %31 = getelementptr inbounds %class.dtPathCorridor, ptr %8, i32 0, i32 3
  store i32 1, ptr %31, align 8
  ret void
}