; Function Attrs: mustprogress uwtable
define void @_ZN14dtPathCorridor5resetEjPKf(ptr noundef nonnull align 8 captures(none) dereferenceable(40) initializes((0, 24), (32, 36)) %0, i32 noundef %1, ptr noundef readonly captures(none) %2) local_unnamed_addr #2 align 2 {
  %4 = tail call noundef ptr @_Z21dtAssertFailGetCustomv()
  %5 = icmp ne ptr %4, null
  %6 = getelementptr inbounds nuw i8, ptr %0, i64 24
  %7 = load ptr, ptr %6, align 8
  %.not = icmp eq ptr %7, null
  %or.cond = select i1 %5, i1 %.not, i1 false
  br i1 %or.cond, label %8, label %9

8:                                                ; preds = %3
  tail call void %4(ptr noundef nonnull @.str.3, ptr noundef nonnull @.str.1, i32 noundef 232)
  %.pre = load ptr, ptr %6, align 8
  br label %9

9:                                                ; preds = %8, %3
  %10 = phi ptr [ %.pre, %8 ], [ %7, %3 ]
  %11 = load float, ptr %2, align 4
  store float %11, ptr %0, align 8
  %12 = getelementptr inbounds nuw i8, ptr %2, i64 4
  %13 = load float, ptr %12, align 4
  %14 = getelementptr inbounds nuw i8, ptr %0, i64 4
  store float %13, ptr %14, align 4
  %15 = getelementptr inbounds nuw i8, ptr %2, i64 8
  %16 = load float, ptr %15, align 4
  %17 = getelementptr inbounds nuw i8, ptr %0, i64 8
  store float %16, ptr %17, align 8
  %18 = getelementptr inbounds nuw i8, ptr %0, i64 12
  %19 = load float, ptr %2, align 4
  store float %19, ptr %18, align 4
  %20 = load float, ptr %12, align 4
  %21 = getelementptr inbounds nuw i8, ptr %0, i64 16
  store float %20, ptr %21, align 8
  %22 = load float, ptr %15, align 4
  %23 = getelementptr inbounds nuw i8, ptr %0, i64 20
  store float %22, ptr %23, align 4
  store i32 %1, ptr %10, align 4
  %24 = getelementptr inbounds nuw i8, ptr %0, i64 32
  store i32 1, ptr %24, align 8
  ret void
}